target datalayout = "e-m:e-p270:32:32-p271:32:32-p272:64:64-i64:64-i128:128-f80:128-n8:16:32:64-S128"
target triple = "x86_64-pc-linux-gnu"

; Function Attrs: nounwind uwtable
define hidden i32 @luaO_utf8esc(ptr noundef %0, i64 noundef %1) #0 {
  %3 = alloca ptr, align 8
  %4 = alloca i64, align 8
  %5 = alloca i32, align 4
  %6 = alloca i32, align 4
  store ptr %0, ptr %3, align 8, !tbaa !24
  store i64 %1, ptr %4, align 8, !tbaa !9
  call void @llvm.lifetime.start.p0(i64 4, ptr %5) #10
  store i32 1, ptr %5, align 4, !tbaa !4
  %7 = load i64, ptr %4, align 8, !tbaa !9
  %8 = icmp ult i64 %7, 128
  br i1 %8, label %9, label %14

9:                                                ; preds = %2
  %10 = load i64, ptr %4, align 8, !tbaa !9
  %11 = trunc i64 %10 to i8
  %12 = load ptr, ptr %3, align 8, !tbaa !24
  %13 = getelementptr inbounds i8, ptr %12, i64 7
  store i8 %11, ptr %13, align 1, !tbaa !8
  br label %48

14:                                               ; preds = %2
  call void @llvm.lifetime.start.p0(i64 4, ptr %6) #10
  store i32 63, ptr %6, align 4, !tbaa !4
  br label %15

15:                                               ; preds = %30, %14
  %16 = load i64, ptr %4, align 8, !tbaa !9
  %17 = and i64 %16, 63
  %18 = or i64 128, %17
  %19 = trunc i64 %18 to i8
  %20 = load ptr, ptr %3, align 8, !tbaa !24
  %21 = load i32, ptr %5, align 4, !tbaa !4
  %22 = add nsw i32 %21, 1
  store i32 %22, ptr %5, align 4, !tbaa !4
  %23 = sub nsw i32 8, %21
  %24 = sext i32 %23 to i64
  %25 = getelementptr inbounds i8, ptr %20, i64 %24
  store i8 %19, ptr %25, align 1, !tbaa !8
  %26 = load i64, ptr %4, align 8, !tbaa !9
  %27 = lshr i64 %26, 6
  store i64 %27, ptr %4, align 8, !tbaa !9
  %28 = load i32, ptr %6, align 4, !tbaa !4
  %29 = lshr i32 %28, 1
  store i32 %29, ptr %6, align 4, !tbaa !4
  br label %30

30:                                               ; preds = %15
  %31 = load i64, ptr %4, align 8, !tbaa !9
  %32 = load i32, ptr %6, align 4, !tbaa !4
  %33 = zext i32 %32 to i64
  %34 = icmp ugt i64 %31, %33
  br i1 %34, label %15, label %35

35:                                               ; preds = %30
  %36 = load i32, ptr %6, align 4, !tbaa !4
  %37 = xor i32 %36, -1
  %38 = shl i32 %37, 1
  %39 = zext i32 %38 to i64
  %40 = load i64, ptr %4, align 8, !tbaa !9
  %41 = or i64 %39, %40
  %42 = trunc i64 %41 to i8
  %43 = load ptr, ptr %3, align 8, !tbaa !24
  %44 = load i32, ptr %5, align 4, !tbaa !4
  %45 = sub nsw i32 8, %44
  %46 = sext i32 %45 to i64
  %47 = getelementptr inbounds i8, ptr %43, i64 %46
  store i8 %42, ptr %47, align 1, !tbaa !8
  call void @llvm.lifetime.end.p0(i64 4, ptr %6) #10
  br label %48

48:                                               ; preds = %35, %9
  %49 = load i32, ptr %5, align 4, !tbaa !4
  call void @llvm.lifetime.end.p0(i64 4, ptr %5) #10
  ret i32 %49
}