; Function Attrs: nofree norecurse nosync nounwind memory(argmem: write) uwtable
define hidden range(i32 1, 0) i32 @luaO_utf8esc(ptr noundef writeonly captures(none) %0, i64 noundef %1) local_unnamed_addr #5 {
  %3 = icmp ult i64 %1, 128
  br i1 %3, label %21, label %.preheader

.preheader:                                       ; preds = %2, %.preheader
  %indvars.iv = phi i64 [ %indvars.iv.next, %.preheader ], [ 1, %2 ]
  %.015 = phi i64 [ %9, %.preheader ], [ %1, %2 ]
  %.0 = phi i32 [ %10, %.preheader ], [ 63, %2 ]
  %4 = trunc i64 %.015 to i8
  %5 = and i8 %4, 63
  %6 = or disjoint i8 %5, -128
  %indvars.iv.next = add nuw nsw i64 %indvars.iv, 1
  %7 = sub nsw i64 8, %indvars.iv
  %8 = getelementptr inbounds i8, ptr %0, i64 %7
  store i8 %6, ptr %8, align 1, !tbaa !4
  %9 = lshr i64 %.015, 6
  %10 = lshr i32 %.0, 1
  %11 = zext nneg i32 %10 to i64
  %12 = icmp samesign ugt i64 %9, %11
  br i1 %12, label %.preheader, label %13

13:                                               ; preds = %.preheader
  %14 = trunc nsw i64 %indvars.iv.next to i32
  %15 = xor i32 %10, -1
  %16 = shl nsw i32 %15, 1
  %17 = zext i32 %16 to i64
  %18 = or i64 %9, %17
  %19 = shl i64 %indvars.iv, 32
  %sext = sub i64 30064771072, %19
  %20 = ashr exact i64 %sext, 32
  br label %21

21:                                               ; preds = %2, %13
  %.sink26 = phi i64 [ %20, %13 ], [ 7, %2 ]
  %.sink.in = phi i64 [ %18, %13 ], [ %1, %2 ]
  %.014 = phi i32 [ %14, %13 ], [ 1, %2 ]
  %.sink = trunc i64 %.sink.in to i8
  %22 = getelementptr inbounds i8, ptr %0, i64 %.sink26
  store i8 %.sink, ptr %22, align 1, !tbaa !4
  ret i32 %.014
}